; Function Attrs: mustprogress uwtable
define hidden void @_ZN5zxing6qrcode17FinderPatternInfoC2ESt6vectorINS_3RefINS0_13FinderPatternEEESaIS5_EE(ptr noundef nonnull align 8 captures(none) dereferenceable(48) initializes((0, 12), (16, 44)) %0, ptr noundef readonly captures(none) %1) unnamed_addr #0 align 2 personality ptr @__gxx_personality_v0 {
  %3 = getelementptr inbounds nuw i8, ptr %0, i64 8
  store i32 0, ptr %3, align 8, !tbaa !3
  store ptr getelementptr inbounds nuw inrange(-16, 16) (i8, ptr @_ZTVN5zxing6qrcode17FinderPatternInfoE, i64 16), ptr %0, align 8, !tbaa !8
  %4 = getelementptr inbounds nuw i8, ptr %0, i64 16
  %5 = load ptr, ptr %1, align 8, !tbaa !10
  store ptr null, ptr %4, align 8, !tbaa !14
  %6 = load ptr, ptr %5, align 8, !tbaa !14
  %.not.i.i = icmp eq ptr %6, null
  br i1 %.not.i.i, label %11, label %7

7:                                                ; preds = %2
  %8 = getelementptr inbounds nuw i8, ptr %6, i64 8
  %9 = load i32, ptr %8, align 8, !tbaa !3
  %10 = add i32 %9, 1
  store i32 %10, ptr %8, align 8, !tbaa !3
  br label %11

11:                                               ; preds = %7, %2
  store ptr %6, ptr %4, align 8, !tbaa !14
  %12 = getelementptr inbounds nuw i8, ptr %0, i64 24
  %13 = getelementptr inbounds nuw i8, ptr %5, i64 8
  store ptr null, ptr %12, align 8, !tbaa !14
  %14 = load ptr, ptr %13, align 8, !tbaa !14
  %.not.i.i8 = icmp eq ptr %14, null
  br i1 %.not.i.i8, label %19, label %15

15:                                               ; preds = %11
  %16 = getelementptr inbounds nuw i8, ptr %14, i64 8
  %17 = load i32, ptr %16, align 8, !tbaa !3
  %18 = add i32 %17, 1
  store i32 %18, ptr %16, align 8, !tbaa !3
  br label %19

19:                                               ; preds = %15, %11
  store ptr %14, ptr %12, align 8, !tbaa !14
  %20 = getelementptr inbounds nuw i8, ptr %0, i64 32
  %21 = getelementptr inbounds nuw i8, ptr %5, i64 16
  store ptr null, ptr %20, align 8, !tbaa !14
  %22 = load ptr, ptr %21, align 8, !tbaa !14
  %.not.i.i10 = icmp eq ptr %22, null
  br i1 %.not.i.i10, label %27, label %23

23:                                               ; preds = %19
  %24 = getelementptr inbounds nuw i8, ptr %22, i64 8
  %25 = load i32, ptr %24, align 8, !tbaa !3
  %26 = add i32 %25, 1
  store i32 %26, ptr %24, align 8, !tbaa !3
  br label %27

27:                                               ; preds = %23, %19
  store ptr %22, ptr %20, align 8, !tbaa !14
  %28 = getelementptr inbounds nuw i8, ptr %0, i64 40
  store float 0.000000e+00, ptr %28, align 8, !tbaa !17
  invoke void @_ZN5zxing6qrcode17FinderPatternInfo25estimateFinderPatternInfoEv(ptr noundef nonnull align 8 dereferenceable(48) %0)
          to label %29 unwind label %30

29:                                               ; preds = %27
  ret void

30:                                               ; preds = %27
  %31 = landingpad { ptr, i32 }
          cleanup
  %32 = load ptr, ptr %20, align 8, !tbaa !14
  %.not.i = icmp eq ptr %32, null
  br i1 %.not.i, label %_ZN5zxing3RefINS_6qrcode13FinderPatternEED2Ev.exit, label %33

33:                                               ; preds = %30
  %34 = getelementptr inbounds nuw i8, ptr %32, i64 8
  %35 = load i32, ptr %34, align 8, !tbaa !3
  %36 = add i32 %35, -1
  store i32 %36, ptr %34, align 8, !tbaa !3
  %37 = icmp eq i32 %36, 0
  br i1 %37, label %38, label %_ZN5zxing3RefINS_6qrcode13FinderPatternEED2Ev.exit

38:                                               ; preds = %33
  store i32 -559026175, ptr %34, align 8, !tbaa !3
  %39 = load ptr, ptr %32, align 8, !tbaa !8
  %40 = getelementptr inbounds nuw i8, ptr %39, i64 8
  %41 = load ptr, ptr %40, align 8
  tail call void %41(ptr noundef nonnull align 8 dereferenceable(12) %32) #10
  br label %_ZN5zxing3RefINS_6qrcode13FinderPatternEED2Ev.exit

_ZN5zxing3RefINS_6qrcode13FinderPatternEED2Ev.exit: ; preds = %38, %33, %30
  %42 = load ptr, ptr %12, align 8, !tbaa !14
  %.not.i12 = icmp eq ptr %42, null
  br i1 %.not.i12, label %_ZN5zxing3RefINS_6qrcode13FinderPatternEED2Ev.exit13, label %43

43:                                               ; preds = %_ZN5zxing3RefINS_6qrcode13FinderPatternEED2Ev.exit
  %44 = getelementptr inbounds nuw i8, ptr %42, i64 8
  %45 = load i32, ptr %44, align 8, !tbaa !3
  %46 = add i32 %45, -1
  store i32 %46, ptr %44, align 8, !tbaa !3
  %47 = icmp eq i32 %46, 0
  br i1 %47, label %48, label %_ZN5zxing3RefINS_6qrcode13FinderPatternEED2Ev.exit13

48:                                               ; preds = %43
  store i32 -559026175, ptr %44, align 8, !tbaa !3
  %49 = load ptr, ptr %42, align 8, !tbaa !8
  %50 = getelementptr inbounds nuw i8, ptr %49, i64 8
  %51 = load ptr, ptr %50, align 8
  tail call void %51(ptr noundef nonnull align 8 dereferenceable(12) %42) #10
  br label %_ZN5zxing3RefINS_6qrcode13FinderPatternEED2Ev.exit13

_ZN5zxing3RefINS_6qrcode13FinderPatternEED2Ev.exit13: ; preds = %48, %43, %_ZN5zxing3RefINS_6qrcode13FinderPatternEED2Ev.exit
  %52 = load ptr, ptr %4, align 8, !tbaa !14
  %.not.i14 = icmp eq ptr %52, null
  br i1 %.not.i14, label %_ZN5zxing3RefINS_6qrcode13FinderPatternEED2Ev.exit15, label %53

53:                                               ; preds = %_ZN5zxing3RefINS_6qrcode13FinderPatternEED2Ev.exit13
  %54 = getelementptr inbounds nuw i8, ptr %52, i64 8
  %55 = load i32, ptr %54, align 8, !tbaa !3
  %56 = add i32 %55, -1
  store i32 %56, ptr %54, align 8, !tbaa !3
  %57 = icmp eq i32 %56, 0
  br i1 %57, label %58, label %_ZN5zxing3RefINS_6qrcode13FinderPatternEED2Ev.exit15

58:                                               ; preds = %53
  store i32 -559026175, ptr %54, align 8, !tbaa !3
  %59 = load ptr, ptr %52, align 8, !tbaa !8
  %60 = getelementptr inbounds nuw i8, ptr %59, i64 8
  %61 = load ptr, ptr %60, align 8
  tail call void %61(ptr noundef nonnull align 8 dereferenceable(12) %52) #10
  br label %_ZN5zxing3RefINS_6qrcode13FinderPatternEED2Ev.exit15

_ZN5zxing3RefINS_6qrcode13FinderPatternEED2Ev.exit15: ; preds = %58, %53, %_ZN5zxing3RefINS_6qrcode13FinderPatternEED2Ev.exit13
  resume { ptr, i32 } %31
}